target datalayout = "e-m:e-p270:32:32-p271:32:32-p272:64:64-i64:64-i128:128-f80:128-n8:16:32:64-S128"
target triple = "x86_64-unknown-linux-gnu"

%struct.VMDKCreateOptsData = type { ptr, ptr, ptr, ptr }

@.str.24 = private unnamed_addr constant [21 x i8] c"../qemu/block/vmdk.c\00", align 1
@.str.108 = private unnamed_addr constant [13 x i8] c"errp == NULL\00", align 1
@__PRETTY_FUNCTION__.vmdk_co_create_opts_cb = private unnamed_addr constant [97 x i8] c"BlockBackend *vmdk_co_create_opts_cb(int64_t, int, _Bool, _Bool, _Bool, _Bool, void *, Error **)\00", align 1
@.str.109 = private unnamed_addr constant [5 x i8] c"%s%s\00", align 1
@.str.110 = private unnamed_addr constant [12 x i8] c"%s-%c%03d%s\00", align 1
@.str.111 = private unnamed_addr constant [9 x i8] c"idx == 1\00", align 1
@.str.112 = private unnamed_addr constant [10 x i8] c"%s-flat%s\00", align 1

; Function Attrs: nounwind sspstrong uwtable
define internal i32 @vmdk_create_extent(ptr noundef %filename, i64 noundef %filesize, i1 noundef zeroext %flat, i1 noundef zeroext %compress, i1 noundef zeroext %zeroed_grain, ptr noundef %pbb, ptr noundef %opts, ptr noundef %errp) #0 {
entry:
  %filename.addr = alloca ptr, align 8
  %filesize.addr = alloca i64, align 8
  %flat.addr = alloca i8, align 1
  %compress.addr = alloca i8, align 1
  %zeroed_grain.addr = alloca i8, align 1
  %pbb.addr = alloca ptr, align 8
  %opts.addr = alloca ptr, align 8
  %errp.addr = alloca ptr, align 8
  %ret = alloca i32, align 4
  %blk = alloca ptr, align 8
  store ptr %filename, ptr %filename.addr, align 8
  store i64 %filesize, ptr %filesize.addr, align 8
  %frombool = zext i1 %flat to i8
  store i8 %frombool, ptr %flat.addr, align 1
  %frombool1 = zext i1 %compress to i8
  store i8 %frombool1, ptr %compress.addr, align 1
  %frombool2 = zext i1 %zeroed_grain to i8
  store i8 %frombool2, ptr %zeroed_grain.addr, align 1
  store ptr %pbb, ptr %pbb.addr, align 8
  store ptr %opts, ptr %opts.addr, align 8
  store ptr %errp, ptr %errp.addr, align 8
  store ptr null, ptr %blk, align 8
  %0 = load ptr, ptr %filename.addr, align 8
  %1 = load ptr, ptr %opts.addr, align 8
  %2 = load ptr, ptr %errp.addr, align 8
  %call = call i32 @bdrv_co_create_file(ptr noundef %0, ptr noundef %1, ptr noundef %2)
  store i32 %call, ptr %ret, align 4
  %3 = load i32, ptr %ret, align 4
  %cmp = icmp slt i32 %3, 0
  br i1 %cmp, label %if.then, label %if.end

if.then:                                          ; preds = %entry
  br label %exit

if.end:                                           ; preds = %entry
  %4 = load ptr, ptr %filename.addr, align 8
  %5 = load ptr, ptr %errp.addr, align 8
  %call3 = call ptr @blk_co_new_open(ptr noundef %4, ptr noundef null, ptr noundef null, i32 noundef 32774, ptr noundef %5)
  store ptr %call3, ptr %blk, align 8
  %6 = load ptr, ptr %blk, align 8
  %cmp4 = icmp eq ptr %6, null
  br i1 %cmp4, label %if.then5, label %if.end6

if.then5:                                         ; preds = %if.end
  store i32 -5, ptr %ret, align 4
  br label %exit

if.end6:                                          ; preds = %if.end
  %7 = load ptr, ptr %blk, align 8
  call void @blk_set_allow_write_beyond_eof(ptr noundef %7, i1 noundef zeroext true)
  %8 = load ptr, ptr %blk, align 8
  %9 = load i64, ptr %filesize.addr, align 8
  %10 = load i8, ptr %flat.addr, align 1
  %tobool = trunc i8 %10 to i1
  %11 = load i8, ptr %compress.addr, align 1
  %tobool7 = trunc i8 %11 to i1
  %12 = load i8, ptr %zeroed_grain.addr, align 1
  %tobool8 = trunc i8 %12 to i1
  %13 = load ptr, ptr %errp.addr, align 8
  %call9 = call i32 @vmdk_init_extent(ptr noundef %8, i64 noundef %9, i1 noundef zeroext %tobool, i1 noundef zeroext %tobool7, i1 noundef zeroext %tobool8, ptr noundef %13)
  store i32 %call9, ptr %ret, align 4
  br label %exit

exit:                                             ; preds = %if.end6, %if.then5, %if.then
  %14 = load ptr, ptr %blk, align 8
  %tobool10 = icmp ne ptr %14, null
  br i1 %tobool10, label %if.then11, label %if.end15

if.then11:                                        ; preds = %exit
  %15 = load ptr, ptr %pbb.addr, align 8
  %tobool12 = icmp ne ptr %15, null
  br i1 %tobool12, label %if.then13, label %if.else

if.then13:                                        ; preds = %if.then11
  %16 = load ptr, ptr %blk, align 8
  %17 = load ptr, ptr %pbb.addr, align 8
  store ptr %16, ptr %17, align 8
  br label %if.end14

if.else:                                          ; preds = %if.then11
  %18 = load ptr, ptr %blk, align 8
  call void @blk_co_unref(ptr noundef %18)
  store ptr null, ptr %blk, align 8
  br label %if.end14

if.end14:                                         ; preds = %if.else, %if.then13
  br label %if.end15

if.end15:                                         ; preds = %if.end14, %exit
  %19 = load i32, ptr %ret, align 4
  ret i32 %19
}

; Function Attrs: nounwind sspstrong uwtable
define internal ptr @vmdk_co_create_opts_cb(i64 noundef %size, i32 noundef %idx, i1 noundef zeroext %flat, i1 noundef zeroext %split, i1 noundef zeroext %compress, i1 noundef zeroext %zeroed_grain, ptr noundef %opaque, ptr noundef %errp) #0 {
entry:
  %retval = alloca ptr, align 8
  %size.addr = alloca i64, align 8
  %idx.addr = alloca i32, align 4
  %flat.addr = alloca i8, align 1
  %split.addr = alloca i8, align 1
  %compress.addr = alloca i8, align 1
  %zeroed_grain.addr = alloca i8, align 1
  %opaque.addr = alloca ptr, align 8
  %errp.addr = alloca ptr, align 8
  %blk = alloca ptr, align 8
  %bs = alloca ptr, align 8
  %data = alloca ptr, align 8
  %ext_filename = alloca ptr, align 8
  %rel_filename = alloca ptr, align 8
  store i64 %size, ptr %size.addr, align 8
  store i32 %idx, ptr %idx.addr, align 4
  %frombool = zext i1 %flat to i8
  store i8 %frombool, ptr %flat.addr, align 1
  %frombool1 = zext i1 %split to i8
  store i8 %frombool1, ptr %split.addr, align 1
  %frombool2 = zext i1 %compress to i8
  store i8 %frombool2, ptr %compress.addr, align 1
  %frombool3 = zext i1 %zeroed_grain to i8
  store i8 %frombool3, ptr %zeroed_grain.addr, align 1
  store ptr %opaque, ptr %opaque.addr, align 8
  store ptr %errp, ptr %errp.addr, align 8
  store ptr null, ptr %blk, align 8
  store ptr null, ptr %bs, align 8
  %0 = load ptr, ptr %opaque.addr, align 8
  store ptr %0, ptr %data, align 8
  store ptr null, ptr %ext_filename, align 8
  store ptr null, ptr %rel_filename, align 8
  %1 = load i64, ptr %size.addr, align 8
  %cmp = icmp eq i64 %1, -1
  br i1 %cmp, label %if.then, label %if.end6

if.then:                                          ; preds = %entry
  %2 = load ptr, ptr %errp.addr, align 8
  %cmp4 = icmp eq ptr %2, null
  br i1 %cmp4, label %if.then5, label %if.else

if.then5:                                         ; preds = %if.then
  br label %if.end

if.else:                                          ; preds = %if.then
  call void @__assert_fail(ptr noundef @.str.108, ptr noundef @.str.24, i32 noundef 2670, ptr noundef @__PRETTY_FUNCTION__.vmdk_co_create_opts_cb) #10
  unreachable

if.end:                                           ; preds = %if.then5
  store ptr null, ptr %retval, align 8
  br label %return

if.end6:                                          ; preds = %entry
  %3 = load i32, ptr %idx.addr, align 4
  %cmp7 = icmp eq i32 %3, 0
  br i1 %cmp7, label %if.then8, label %if.else9

if.then8:                                         ; preds = %if.end6
  %4 = load ptr, ptr %data, align 8
  %prefix = getelementptr inbounds %struct.VMDKCreateOptsData, ptr %4, i32 0, i32 1
  %5 = load ptr, ptr %prefix, align 8
  %6 = load ptr, ptr %data, align 8
  %postfix = getelementptr inbounds %struct.VMDKCreateOptsData, ptr %6, i32 0, i32 2
  %7 = load ptr, ptr %postfix, align 8
  %call = call noalias ptr (ptr, ...) @g_strdup_printf(ptr noundef @.str.109, ptr noundef %5, ptr noundef %7)
  store ptr %call, ptr %rel_filename, align 8
  br label %if.end24

if.else9:                                         ; preds = %if.end6
  %8 = load i8, ptr %split.addr, align 1
  %tobool = trunc i8 %8 to i1
  br i1 %tobool, label %if.then10, label %if.else15

if.then10:                                        ; preds = %if.else9
  %9 = load ptr, ptr %data, align 8
  %prefix11 = getelementptr inbounds %struct.VMDKCreateOptsData, ptr %9, i32 0, i32 1
  %10 = load ptr, ptr %prefix11, align 8
  %11 = load i8, ptr %flat.addr, align 1
  %tobool12 = trunc i8 %11 to i1
  %cond = select i1 %tobool12, i32 102, i32 115
  %12 = load i32, ptr %idx.addr, align 4
  %13 = load ptr, ptr %data, align 8
  %postfix13 = getelementptr inbounds %struct.VMDKCreateOptsData, ptr %13, i32 0, i32 2
  %14 = load ptr, ptr %postfix13, align 8
  %call14 = call noalias ptr (ptr, ...) @g_strdup_printf(ptr noundef @.str.110, ptr noundef %10, i32 noundef %cond, i32 noundef %12, ptr noundef %14)
  store ptr %call14, ptr %rel_filename, align 8
  br label %if.end23

if.else15:                                        ; preds = %if.else9
  %15 = load i32, ptr %idx.addr, align 4
  %cmp16 = icmp eq i32 %15, 1
  br i1 %cmp16, label %if.then17, label %if.else18

if.then17:                                        ; preds = %if.else15
  br label %if.end19

if.else18:                                        ; preds = %if.else15
  call void @__assert_fail(ptr noundef @.str.111, ptr noundef @.str.24, i32 noundef 2681, ptr noundef @__PRETTY_FUNCTION__.vmdk_co_create_opts_cb) #10
  unreachable

if.end19:                                         ; preds = %if.then17
  %16 = load ptr, ptr %data, align 8
  %prefix20 = getelementptr inbounds %struct.VMDKCreateOptsData, ptr %16, i32 0, i32 1
  %17 = load ptr, ptr %prefix20, align 8
  %18 = load ptr, ptr %data, align 8
  %postfix21 = getelementptr inbounds %struct.VMDKCreateOptsData, ptr %18, i32 0, i32 2
  %19 = load ptr, ptr %postfix21, align 8
  %call22 = call noalias ptr (ptr, ...) @g_strdup_printf(ptr noundef @.str.112, ptr noundef %17, ptr noundef %19)
  store ptr %call22, ptr %rel_filename, align 8
  br label %if.end23

if.end23:                                         ; preds = %if.end19, %if.then10
  br label %if.end24

if.end24:                                         ; preds = %if.end23, %if.then8
  %20 = load ptr, ptr %data, align 8
  %path = getelementptr inbounds %struct.VMDKCreateOptsData, ptr %20, i32 0, i32 0
  %21 = load ptr, ptr %path, align 8
  %22 = load ptr, ptr %rel_filename, align 8
  %call25 = call noalias ptr (ptr, ...) @g_strdup_printf(ptr noundef @.str.109, ptr noundef %21, ptr noundef %22)
  store ptr %call25, ptr %ext_filename, align 8
  %23 = load ptr, ptr %rel_filename, align 8
  call void @g_free(ptr noundef %23)
  %24 = load ptr, ptr %ext_filename, align 8
  %25 = load i64, ptr %size.addr, align 8
  %26 = load i8, ptr %flat.addr, align 1
  %tobool26 = trunc i8 %26 to i1
  %27 = load i8, ptr %compress.addr, align 1
  %tobool27 = trunc i8 %27 to i1
  %28 = load i8, ptr %zeroed_grain.addr, align 1
  %tobool28 = trunc i8 %28 to i1
  %29 = load ptr, ptr %data, align 8
  %opts = getelementptr inbounds %struct.VMDKCreateOptsData, ptr %29, i32 0, i32 3
  %30 = load ptr, ptr %opts, align 8
  %31 = load ptr, ptr %errp.addr, align 8
  %call29 = call i32 @vmdk_create_extent(ptr noundef %24, i64 noundef %25, i1 noundef zeroext %tobool26, i1 noundef zeroext %tobool27, i1 noundef zeroext %tobool28, ptr noundef %blk, ptr noundef %30, ptr noundef %31)
  %tobool30 = icmp ne i32 %call29, 0
  br i1 %tobool30, label %if.then31, label %if.end32

if.then31:                                        ; preds = %if.end24
  br label %exit

if.end32:                                         ; preds = %if.end24
  %32 = load ptr, ptr %bs, align 8
  call void @bdrv_co_unref(ptr noundef %32)
  br label %exit

exit:                                             ; preds = %if.end32, %if.then31
  %33 = load ptr, ptr %ext_filename, align 8
  call void @g_free(ptr noundef %33)
  %34 = load ptr, ptr %blk, align 8
  store ptr %34, ptr %retval, align 8
  br label %return

return:                                           ; preds = %exit, %if.end
  %35 = load ptr, ptr %retval, align 8
  ret ptr %35
}