; Function Attrs: nounwind sspstrong uwtable
define internal ptr @vmdk_co_create_opts_cb(i64 noundef %size, i32 noundef %idx, i1 noundef zeroext %flat, i1 noundef zeroext %split, i1 noundef zeroext %compress, i1 noundef zeroext %zeroed_grain, ptr noundef readonly captures(none) %opaque, ptr noundef %errp) #0 {
entry:
  %cmp = icmp eq i64 %size, -1
  br i1 %cmp, label %if.then, label %if.end6

if.then:                                          ; preds = %entry
  %cmp4 = icmp eq ptr %errp, null
  br i1 %cmp4, label %return, label %if.else

if.else:                                          ; preds = %if.then
  tail call void @__assert_fail(ptr noundef nonnull @.str.108, ptr noundef nonnull @.str.24, i32 noundef 2670, ptr noundef nonnull @__PRETTY_FUNCTION__.vmdk_co_create_opts_cb) #16
  unreachable

if.end6:                                          ; preds = %entry
  %cmp7 = icmp eq i32 %idx, 0
  br i1 %cmp7, label %if.then8, label %if.else9

if.then8:                                         ; preds = %if.end6
  %prefix = getelementptr inbounds nuw i8, ptr %opaque, i64 8
  %0 = load ptr, ptr %prefix, align 8
  %postfix = getelementptr inbounds nuw i8, ptr %opaque, i64 16
  %1 = load ptr, ptr %postfix, align 8
  %call = tail call noalias ptr (ptr, ...) @g_strdup_printf(ptr noundef nonnull @.str.109, ptr noundef %0, ptr noundef %1) #15
  br label %if.end24

if.else9:                                         ; preds = %if.end6
  br i1 %split, label %if.then10, label %if.else15

if.then10:                                        ; preds = %if.else9
  %prefix11 = getelementptr inbounds nuw i8, ptr %opaque, i64 8
  %2 = load ptr, ptr %prefix11, align 8
  %cond = select i1 %flat, i32 102, i32 115
  %postfix13 = getelementptr inbounds nuw i8, ptr %opaque, i64 16
  %3 = load ptr, ptr %postfix13, align 8
  %call14 = tail call noalias ptr (ptr, ...) @g_strdup_printf(ptr noundef nonnull @.str.110, ptr noundef %2, i32 noundef %cond, i32 noundef %idx, ptr noundef %3) #15
  br label %if.end24

if.else15:                                        ; preds = %if.else9
  %cmp16 = icmp eq i32 %idx, 1
  br i1 %cmp16, label %if.end19, label %if.else18

if.else18:                                        ; preds = %if.else15
  tail call void @__assert_fail(ptr noundef nonnull @.str.111, ptr noundef nonnull @.str.24, i32 noundef 2681, ptr noundef nonnull @__PRETTY_FUNCTION__.vmdk_co_create_opts_cb) #16
  unreachable

if.end19:                                         ; preds = %if.else15
  %prefix20 = getelementptr inbounds nuw i8, ptr %opaque, i64 8
  %4 = load ptr, ptr %prefix20, align 8
  %postfix21 = getelementptr inbounds nuw i8, ptr %opaque, i64 16
  %5 = load ptr, ptr %postfix21, align 8
  %call22 = tail call noalias ptr (ptr, ...) @g_strdup_printf(ptr noundef nonnull @.str.112, ptr noundef %4, ptr noundef %5) #15
  br label %if.end24

if.end24:                                         ; preds = %if.then10, %if.end19, %if.then8
  %rel_filename.0 = phi ptr [ %call, %if.then8 ], [ %call14, %if.then10 ], [ %call22, %if.end19 ]
  %6 = load ptr, ptr %opaque, align 8
  %call25 = tail call noalias ptr (ptr, ...) @g_strdup_printf(ptr noundef nonnull @.str.109, ptr noundef %6, ptr noundef %rel_filename.0) #15
  tail call void @g_free(ptr noundef %rel_filename.0) #15
  %opts = getelementptr inbounds nuw i8, ptr %opaque, i64 24
  %7 = load ptr, ptr %opts, align 8
  %call.i = tail call i32 @bdrv_co_create_file(ptr noundef %call25, ptr noundef %7, ptr noundef %errp) #15
  %cmp.i = icmp slt i32 %call.i, 0
  br i1 %cmp.i, label %exit, label %if.end.i

if.end.i:                                         ; preds = %if.end24
  %call3.i = tail call ptr @blk_co_new_open(ptr noundef %call25, ptr noundef null, ptr noundef null, i32 noundef 32774, ptr noundef %errp) #15
  %cmp4.i = icmp eq ptr %call3.i, null
  br i1 %cmp4.i, label %exit, label %vmdk_create_extent.exit

vmdk_create_extent.exit:                          ; preds = %if.end.i
  tail call void @blk_set_allow_write_beyond_eof(ptr noundef nonnull %call3.i, i1 noundef zeroext true) #15
  %call9.i = tail call i32 @vmdk_init_extent(ptr noundef nonnull %call3.i, i64 noundef %size, i1 noundef zeroext %flat, i1 noundef zeroext %compress, i1 noundef zeroext %zeroed_grain, ptr noundef %errp)
  %tobool30.not = icmp eq i32 %call9.i, 0
  br i1 %tobool30.not, label %if.end32, label %exit

if.end32:                                         ; preds = %vmdk_create_extent.exit
  tail call void @bdrv_co_unref(ptr noundef null) #15
  br label %exit

exit:                                             ; preds = %if.end24, %if.end.i, %vmdk_create_extent.exit, %if.end32
  %blk.018 = phi ptr [ %call3.i, %vmdk_create_extent.exit ], [ %call3.i, %if.end32 ], [ null, %if.end.i ], [ null, %if.end24 ]
  tail call void @g_free(ptr noundef %call25) #15
  br label %return

return:                                           ; preds = %if.then, %exit
  %retval.0 = phi ptr [ %blk.018, %exit ], [ null, %if.then ]
  ret ptr %retval.0
}